target datalayout = "e-m:e-p270:32:32-p271:32:32-p272:64:64-i64:64-i128:128-f80:128-n8:16:32:64-S128"
target triple = "x86_64-pc-linux-gnu"

%class.TransTableL = type { %class.TransTable, i32, i32, i32, i32, i32, i32, %"struct.TransTableL::pageStatsType", [8192 x %"struct.TransTableL::aggrType"], [12 x [4 x ptr]], [12 x [4 x ptr]], ptr, ptr, %"struct.TransTableL::harvestedType", i32, i32 }
%class.TransTable = type { ptr }
%"struct.TransTableL::pageStatsType" = type { i32, i32, i32, i32, i32 }
%"struct.TransTableL::aggrType" = type { [4 x i32], [4 x [4 x i32]] }
%"struct.TransTableL::harvestedType" = type { i32, [1000 x ptr] }
%"struct.TransTableL::poolType" = type { ptr, ptr, i32, ptr }

; Function Attrs: mustprogress nounwind uwtable
define void @_ZN11TransTableL9ReleaseTTEv(ptr noundef nonnull align 8 dereferenceable(664216) %0) #5 align 2 {
  %2 = alloca ptr, align 8
  %3 = alloca i32, align 4
  %4 = alloca i32, align 4
  store ptr %0, ptr %2, align 8
  %5 = load ptr, ptr %2, align 8
  %6 = getelementptr inbounds nuw %class.TransTableL, ptr %5, i32 0, i32 15
  %7 = load i32, ptr %6, align 4
  %8 = icmp ne i32 %7, 0
  br i1 %8, label %10, label %9

9:                                                ; preds = %1
  br label %46

10:                                               ; preds = %1
  %11 = getelementptr inbounds nuw %class.TransTableL, ptr %5, i32 0, i32 15
  store i32 0, ptr %11, align 4
  store i32 0, ptr %3, align 4
  br label %12

12:                                               ; preds = %43, %10
  %13 = load i32, ptr %3, align 4
  %14 = icmp slt i32 %13, 12
  br i1 %14, label %15, label %46

15:                                               ; preds = %12
  store i32 0, ptr %4, align 4
  br label %16

16:                                               ; preds = %39, %15
  %17 = load i32, ptr %4, align 4
  %18 = icmp slt i32 %17, 4
  br i1 %18, label %19, label %42

19:                                               ; preds = %16
  %20 = getelementptr inbounds nuw %class.TransTableL, ptr %5, i32 0, i32 9
  %21 = load i32, ptr %3, align 4
  %22 = sext i32 %21 to i64
  %23 = getelementptr inbounds [12 x [4 x ptr]], ptr %20, i64 0, i64 %22
  %24 = load i32, ptr %4, align 4
  %25 = sext i32 %24 to i64
  %26 = getelementptr inbounds [4 x ptr], ptr %23, i64 0, i64 %25
  %27 = load ptr, ptr %26, align 8
  %28 = icmp eq ptr %27, null
  br i1 %28, label %29, label %30

29:                                               ; preds = %19
  br label %39

30:                                               ; preds = %19
  %31 = getelementptr inbounds nuw %class.TransTableL, ptr %5, i32 0, i32 9
  %32 = load i32, ptr %3, align 4
  %33 = sext i32 %32 to i64
  %34 = getelementptr inbounds [12 x [4 x ptr]], ptr %31, i64 0, i64 %33
  %35 = load i32, ptr %4, align 4
  %36 = sext i32 %35 to i64
  %37 = getelementptr inbounds [4 x ptr], ptr %34, i64 0, i64 %36
  %38 = load ptr, ptr %37, align 8
  call void @free(ptr noundef %38) #3
  br label %39

39:                                               ; preds = %30, %29
  %40 = load i32, ptr %4, align 4
  %41 = add nsw i32 %40, 1
  store i32 %41, ptr %4, align 4
  br label %16, !llvm.loop !16

42:                                               ; preds = %16
  br label %43

43:                                               ; preds = %42
  %44 = load i32, ptr %3, align 4
  %45 = add nsw i32 %44, 1
  store i32 %45, ptr %3, align 4
  br label %12, !llvm.loop !17

46:                                               ; preds = %12, %9
  ret void
}

; Function Attrs: noreturn nounwind uwtable
define linkonce_odr hidden void @__clang_call_terminate(ptr noundef %0) #6 comdat {
  %2 = call ptr @__cxa_begin_catch(ptr %0) #3
  call void @_ZSt9terminatev() #18
  unreachable
}

; Function Attrs: mustprogress nounwind uwtable
define linkonce_odr void @_ZN10TransTableD2Ev(ptr noundef nonnull align 8 dereferenceable(8) %0) unnamed_addr #5 comdat align 2 {
  %2 = alloca ptr, align 8
  store ptr %0, ptr %2, align 8
  ret void
}

; Function Attrs: mustprogress nounwind uwtable
define void @_ZN11TransTableL15ReturnAllMemoryEv(ptr noundef nonnull align 8 dereferenceable(664216) %0) unnamed_addr #5 align 2 {
  %2 = alloca ptr, align 8
  %3 = alloca ptr, align 8
  store ptr %0, ptr %2, align 8
  %4 = load ptr, ptr %2, align 8
  %5 = getelementptr inbounds nuw %class.TransTableL, ptr %4, i32 0, i32 11
  %6 = load ptr, ptr %5, align 8
  %7 = icmp ne ptr %6, null
  br i1 %7, label %8, label %40

8:                                                ; preds = %1
  br label %9

9:                                                ; preds = %15, %8
  %10 = getelementptr inbounds nuw %class.TransTableL, ptr %4, i32 0, i32 11
  %11 = load ptr, ptr %10, align 8
  %12 = getelementptr inbounds nuw %"struct.TransTableL::poolType", ptr %11, i32 0, i32 0
  %13 = load ptr, ptr %12, align 8
  %14 = icmp ne ptr %13, null
  br i1 %14, label %15, label %21

15:                                               ; preds = %9
  %16 = getelementptr inbounds nuw %class.TransTableL, ptr %4, i32 0, i32 11
  %17 = load ptr, ptr %16, align 8
  %18 = getelementptr inbounds nuw %"struct.TransTableL::poolType", ptr %17, i32 0, i32 0
  %19 = load ptr, ptr %18, align 8
  %20 = getelementptr inbounds nuw %class.TransTableL, ptr %4, i32 0, i32 11
  store ptr %19, ptr %20, align 8
  br label %9, !llvm.loop !6

21:                                               ; preds = %9
  br label %22

22:                                               ; preds = %26, %21
  %23 = getelementptr inbounds nuw %class.TransTableL, ptr %4, i32 0, i32 11
  %24 = load ptr, ptr %23, align 8
  %25 = icmp ne ptr %24, null
  br i1 %25, label %26, label %39

26:                                               ; preds = %22
  %27 = getelementptr inbounds nuw %class.TransTableL, ptr %4, i32 0, i32 11
  %28 = load ptr, ptr %27, align 8
  %29 = getelementptr inbounds nuw %"struct.TransTableL::poolType", ptr %28, i32 0, i32 3
  %30 = load ptr, ptr %29, align 8
  call void @free(ptr noundef %30) #3
  %31 = getelementptr inbounds nuw %class.TransTableL, ptr %4, i32 0, i32 11
  %32 = load ptr, ptr %31, align 8
  store ptr %32, ptr %3, align 8
  %33 = getelementptr inbounds nuw %class.TransTableL, ptr %4, i32 0, i32 11
  %34 = load ptr, ptr %33, align 8
  %35 = getelementptr inbounds nuw %"struct.TransTableL::poolType", ptr %34, i32 0, i32 1
  %36 = load ptr, ptr %35, align 8
  %37 = getelementptr inbounds nuw %class.TransTableL, ptr %4, i32 0, i32 11
  store ptr %36, ptr %37, align 8
  %38 = load ptr, ptr %3, align 8
  call void @free(ptr noundef %38) #3
  br label %22, !llvm.loop !7

39:                                               ; preds = %22
  br label %40

40:                                               ; preds = %39, %1
  %41 = getelementptr inbounds nuw %class.TransTableL, ptr %4, i32 0, i32 3
  store i32 0, ptr %41, align 8
  %42 = getelementptr inbounds nuw %class.TransTableL, ptr %4, i32 0, i32 7
  %43 = getelementptr inbounds nuw %"struct.TransTableL::pageStatsType", ptr %42, i32 0, i32 0
  store i32 0, ptr %43, align 8
  %44 = getelementptr inbounds nuw %class.TransTableL, ptr %4, i32 0, i32 7
  %45 = getelementptr inbounds nuw %"struct.TransTableL::pageStatsType", ptr %44, i32 0, i32 1
  store i32 0, ptr %45, align 4
  %46 = getelementptr inbounds nuw %class.TransTableL, ptr %4, i32 0, i32 7
  %47 = getelementptr inbounds nuw %"struct.TransTableL::pageStatsType", ptr %46, i32 0, i32 2
  store i32 0, ptr %47, align 8
  %48 = getelementptr inbounds nuw %class.TransTableL, ptr %4, i32 0, i32 7
  %49 = getelementptr inbounds nuw %"struct.TransTableL::pageStatsType", ptr %48, i32 0, i32 3
  store i32 0, ptr %49, align 4
  %50 = getelementptr inbounds nuw %class.TransTableL, ptr %4, i32 0, i32 7
  %51 = getelementptr inbounds nuw %"struct.TransTableL::pageStatsType", ptr %50, i32 0, i32 4
  store i32 0, ptr %51, align 8
  call void @_ZN11TransTableL9ReleaseTTEv(ptr noundef nonnull align 8 dereferenceable(664216) %4)
  ret void
}

; Function Attrs: mustprogress nounwind uwtable
define void @_ZN11TransTableLD2Ev(ptr noundef nonnull align 8 dereferenceable(664216) %0) unnamed_addr #5 align 2 personality ptr @__gxx_personality_v0 {
  %2 = alloca ptr, align 8
  store ptr %0, ptr %2, align 8
  %3 = load ptr, ptr %2, align 8
  store ptr getelementptr inbounds inrange(-16, 208) ({ [28 x ptr] }, ptr @_ZTV11TransTableL, i32 0, i32 0, i32 2), ptr %3, align 8
  invoke void @_ZN11TransTableL15ReturnAllMemoryEv(ptr noundef nonnull align 8 dereferenceable(664216) %3)
          to label %4 unwind label %5

4:                                                ; preds = %1
  call void @_ZN10TransTableD2Ev(ptr noundef nonnull align 8 dereferenceable(8) %3) #3
  ret void

5:                                                ; preds = %1
  %6 = landingpad { ptr, i32 }
          catch ptr null
  %7 = extractvalue { ptr, i32 } %6, 0
  call void @__clang_call_terminate(ptr %7) #18
  unreachable
}