; Function Attrs: mustprogress nounwind uwtable
define void @_ZN11TransTableLD2Ev(ptr nocapture noundef nonnull align 8 dereferenceable(664216) %0) unnamed_addr #3 align 2 personality ptr @__gxx_personality_v0 {
  store ptr getelementptr inbounds inrange(-16, 208) (i8, ptr @_ZTV11TransTableL, i64 16), ptr %0, align 8
  %2 = getelementptr inbounds nuw i8, ptr %0, i64 656184
  %3 = load ptr, ptr %2, align 8
  %.not.i = icmp eq ptr %3, null
  br i1 %.not.i, label %.loopexit.i, label %.preheader5.i

.preheader5.i:                                    ; preds = %1
  %4 = load ptr, ptr %3, align 8
  %.not36.i = icmp eq ptr %4, null
  br i1 %.not36.i, label %.preheader.i.preheader, label %.lr.ph.i

.lr.ph.i:                                         ; preds = %.preheader5.i, %.lr.ph.i
  %5 = phi ptr [ %6, %.lr.ph.i ], [ %4, %.preheader5.i ]
  store ptr %5, ptr %2, align 8
  %6 = load ptr, ptr %5, align 8
  %.not3.i = icmp eq ptr %6, null
  br i1 %.not3.i, label %.preheader.i.preheader, label %.lr.ph.i, !llvm.loop !7

.preheader.i.preheader:                           ; preds = %.lr.ph.i, %.preheader5.i
  %.ph = phi ptr [ %3, %.preheader5.i ], [ %5, %.lr.ph.i ]
  br label %.preheader.i

.preheader.i:                                     ; preds = %.preheader.i.preheader, %.preheader.i
  %7 = phi ptr [ %.pr.i, %.preheader.i ], [ %.ph, %.preheader.i.preheader ]
  %8 = getelementptr inbounds nuw i8, ptr %7, i64 24
  %9 = load ptr, ptr %8, align 8
  tail call void @free(ptr noundef %9) #32
  %10 = load ptr, ptr %2, align 8
  %11 = getelementptr inbounds nuw i8, ptr %10, i64 8
  %12 = load ptr, ptr %11, align 8
  store ptr %12, ptr %2, align 8
  tail call void @free(ptr noundef %10) #32
  %.pr.i = load ptr, ptr %2, align 8
  %.not4.i = icmp eq ptr %.pr.i, null
  br i1 %.not4.i, label %.loopexit.i, label %.preheader.i, !llvm.loop !8

.loopexit.i:                                      ; preds = %.preheader.i, %1
  %13 = getelementptr inbounds nuw i8, ptr %0, i64 16
  store i32 0, ptr %13, align 8
  %14 = getelementptr inbounds nuw i8, ptr %0, i64 32
  %15 = getelementptr inbounds nuw i8, ptr %0, i64 664212
  tail call void @llvm.memset.p0.i64(ptr noundef nonnull align 8 dereferenceable(20) %14, i8 0, i64 20, i1 false)
  %16 = load i32, ptr %15, align 4
  %.not.i.i = icmp eq i32 %16, 0
  br i1 %.not.i.i, label %_ZN11TransTableL15ReturnAllMemoryEv.exit, label %17

17:                                               ; preds = %.loopexit.i
  store i32 0, ptr %15, align 4
  %18 = getelementptr inbounds nuw i8, ptr %0, i64 655416
  br label %.preheader.i.i

.preheader.i.i:                                   ; preds = %25, %17
  %indvars.iv13.i.i = phi i64 [ 0, %17 ], [ %indvars.iv.next14.i.i, %25 ]
  br label %19

19:                                               ; preds = %24, %.preheader.i.i
  %indvars.iv.i.i = phi i64 [ 0, %.preheader.i.i ], [ %indvars.iv.next.i.i, %24 ]
  %20 = getelementptr inbounds [12 x [4 x ptr]], ptr %18, i64 0, i64 %indvars.iv13.i.i, i64 %indvars.iv.i.i
  %21 = load ptr, ptr %20, align 8
  %22 = icmp eq ptr %21, null
  br i1 %22, label %24, label %23

23:                                               ; preds = %19
  tail call void @free(ptr noundef nonnull %21) #32
  br label %24

24:                                               ; preds = %23, %19
  %indvars.iv.next.i.i = add nuw nsw i64 %indvars.iv.i.i, 1
  %exitcond.not.i.i = icmp eq i64 %indvars.iv.next.i.i, 4
  br i1 %exitcond.not.i.i, label %25, label %19, !llvm.loop !9

25:                                               ; preds = %24
  %indvars.iv.next14.i.i = add nuw nsw i64 %indvars.iv13.i.i, 1
  %exitcond16.not.i.i = icmp eq i64 %indvars.iv.next14.i.i, 12
  br i1 %exitcond16.not.i.i, label %_ZN11TransTableL15ReturnAllMemoryEv.exit, label %.preheader.i.i, !llvm.loop !10

_ZN11TransTableL15ReturnAllMemoryEv.exit:         ; preds = %25, %.loopexit.i
  ret void
}